(dp0
I1
cnumpy.core.multiarray
scalar
p1
(cnumpy
dtype
p2
(S'f8'
p3
I0
I1
tp4
Rp5
(I3
S'<'
p6
NNNI-1
I-1
I0
tp7
bS'ffff\xcc\x98\xc9?'
p8
tp9
Rp10
sI2
g1
(g5
S'fff\xe6q!\xc5?'
p11
tp12
Rp13
sI3
g1
(g5
S'333S\x8bb\xc5?'
p14
tp15
Rp16
sI4
g1
(g5
S'333\xb3\x87L\xc5?'
p17
tp18
Rp19
sI5
g1
(g5
S'333\xd3tL\xc5?'
p20
tp21
Rp22
sI6
g1
(g5
S'\x9a\x99\x999\xb0D\xc5?'
p23
tp24
Rp25
s.